target datalayout = "e-m:e-p270:32:32-p271:32:32-p272:64:64-i64:64-i128:128-f80:128-n8:16:32:64-S128"
target triple = "x86_64-pc-linux-gnu"

; Function Attrs: mustprogress uwtable
define noundef i64 @_ZN32pxrInternal_v0_24__pxrReserved__25GeomUtilConeMeshGenerator16ComputeNumPointsEmb(i64 noundef %0, i1 noundef zeroext %1) #0 align 2 {
  %3 = alloca i64, align 8
  %4 = alloca i64, align 8
  %5 = alloca i8, align 1
  %6 = alloca i64, align 8
  store i64 %0, ptr %4, align 8
  %7 = zext i1 %1 to i8
  store i8 %7, ptr %5, align 1
  %8 = load i64, ptr %4, align 8
  %9 = icmp ult i64 %8, 3
  br i1 %9, label %10, label %11

10:                                               ; preds = %2
  store i64 0, ptr %3, align 8
  br label %19

11:                                               ; preds = %2
  %12 = load i64, ptr %4, align 8
  %13 = load i8, ptr %5, align 1
  %14 = trunc i8 %13 to i1
  %15 = call noundef i64 @_ZN32pxrInternal_v0_24__pxrReserved__25GeomUtilMeshGeneratorBase23_ComputeNumRadialPointsEmb(i64 noundef %12, i1 noundef zeroext %14)
  store i64 %15, ptr %6, align 8
  %16 = load i64, ptr %6, align 8
  %17 = mul i64 3, %16
  %18 = add i64 %17, 1
  store i64 %18, ptr %3, align 8
  br label %19

19:                                               ; preds = %11, %10
  %20 = load i64, ptr %3, align 8
  ret i64 %20
}