; Function Attrs: mustprogress uwtable
define noundef i64 @_ZN32pxrInternal_v0_24__pxrReserved__25GeomUtilConeMeshGenerator16ComputeNumPointsEmb(i64 noundef %0, i1 noundef zeroext %1) local_unnamed_addr #0 align 2 {
  %3 = icmp ult i64 %0, 3
  br i1 %3, label %8, label %4

4:                                                ; preds = %2
  %5 = tail call noundef i64 @_ZN32pxrInternal_v0_24__pxrReserved__25GeomUtilMeshGeneratorBase23_ComputeNumRadialPointsEmb(i64 noundef %0, i1 noundef zeroext %1)
  %6 = mul i64 %5, 3
  %7 = add i64 %6, 1
  br label %8

8:                                                ; preds = %2, %4
  %.0 = phi i64 [ %7, %4 ], [ 0, %2 ]
  ret i64 %.0
}